; Function Attrs: mustprogress nofree norecurse nosync nounwind willreturn memory(read, argmem: readwrite, inaccessiblemem: none) uwtable
define dso_local void @_ZNK17btConvexHullShape7getEdgeEiR9btVector3S1_(ptr noundef nonnull readonly align 8 captures(none) dereferenceable(152) %0, i32 noundef %1, ptr noundef nonnull writeonly align 4 captures(none) dereferenceable(16) initializes((0, 16)) %2, ptr noundef nonnull writeonly align 4 captures(none) dereferenceable(16) initializes((0, 16)) %3) unnamed_addr #11 align 2 {
  %5 = getelementptr inbounds nuw i8, ptr %0, i64 124
  %6 = load i32, ptr %5, align 4, !tbaa !16
  %7 = srem i32 %1, %6
  %8 = add nsw i32 %1, 1
  %9 = srem i32 %8, %6
  %10 = getelementptr inbounds nuw i8, ptr %0, i64 136
  %11 = load ptr, ptr %10, align 8, !tbaa !15
  %12 = sext i32 %7 to i64
  %13 = getelementptr inbounds %class.btVector3, ptr %11, i64 %12
  %14 = getelementptr inbounds nuw i8, ptr %0, i64 32
  %15 = load float, ptr %13, align 4, !tbaa !26
  %16 = load float, ptr %14, align 8, !tbaa !26
  %17 = fmul float %15, %16
  %18 = getelementptr inbounds nuw i8, ptr %13, i64 4
  %19 = load float, ptr %18, align 4, !tbaa !26
  %20 = getelementptr inbounds nuw i8, ptr %0, i64 36
  %21 = load float, ptr %20, align 4, !tbaa !26
  %22 = fmul float %19, %21
  %23 = getelementptr inbounds nuw i8, ptr %13, i64 8
  %24 = load float, ptr %23, align 4, !tbaa !26
  %25 = getelementptr inbounds nuw i8, ptr %0, i64 40
  %26 = load float, ptr %25, align 8, !tbaa !26
  %27 = fmul float %24, %26
  %.sroa.0.0.vec.insert.i.i = insertelement <2 x float> poison, float %17, i64 0
  %.sroa.0.4.vec.insert.i.i = insertelement <2 x float> %.sroa.0.0.vec.insert.i.i, float %22, i64 1
  %.sroa.3.12.vec.insert.i.i = insertelement <2 x float> <float poison, float 0.000000e+00>, float %27, i64 0
  store <2 x float> %.sroa.0.4.vec.insert.i.i, ptr %2, align 4
  %.sroa.42.0..sroa_idx = getelementptr inbounds nuw i8, ptr %2, i64 8
  store <2 x float> %.sroa.3.12.vec.insert.i.i, ptr %.sroa.42.0..sroa_idx, align 4, !tbaa !21
  %28 = load ptr, ptr %10, align 8, !tbaa !15
  %29 = sext i32 %9 to i64
  %30 = getelementptr inbounds %class.btVector3, ptr %28, i64 %29
  %31 = load float, ptr %30, align 4, !tbaa !26
  %32 = load float, ptr %14, align 8, !tbaa !26
  %33 = fmul float %31, %32
  %34 = getelementptr inbounds nuw i8, ptr %30, i64 4
  %35 = load float, ptr %34, align 4, !tbaa !26
  %36 = load float, ptr %20, align 4, !tbaa !26
  %37 = fmul float %35, %36
  %38 = getelementptr inbounds nuw i8, ptr %30, i64 8
  %39 = load float, ptr %38, align 4, !tbaa !26
  %40 = load float, ptr %25, align 8, !tbaa !26
  %41 = fmul float %39, %40
  %.sroa.0.0.vec.insert.i.i8 = insertelement <2 x float> poison, float %33, i64 0
  %.sroa.0.4.vec.insert.i.i9 = insertelement <2 x float> %.sroa.0.0.vec.insert.i.i8, float %37, i64 1
  %.sroa.3.12.vec.insert.i.i10 = insertelement <2 x float> <float poison, float 0.000000e+00>, float %41, i64 0
  store <2 x float> %.sroa.0.4.vec.insert.i.i9, ptr %3, align 4
  %.sroa.4.0..sroa_idx = getelementptr inbounds nuw i8, ptr %3, i64 8
  store <2 x float> %.sroa.3.12.vec.insert.i.i10, ptr %.sroa.4.0..sroa_idx, align 4, !tbaa !21
  ret void
}